target datalayout = "e-m:e-p270:32:32-p271:32:32-p272:64:64-i64:64-i128:128-f80:128-n8:16:32:64-S128"
target triple = "x86_64-pc-linux-gnu"

; Function Attrs: nounwind uwtable
define ptr @__cli_strcasestr(ptr noundef %0, ptr noundef %1) #0 {
  %3 = alloca ptr, align 8
  %4 = alloca ptr, align 8
  %5 = alloca ptr, align 8
  %6 = alloca i64, align 8
  %7 = alloca [3 x i8], align 1
  %8 = alloca i64, align 8
  %9 = alloca i64, align 8
  store ptr %0, ptr %4, align 8
  store ptr %1, ptr %5, align 8
  %10 = load ptr, ptr %4, align 8
  %11 = call i64 @strlen(ptr noundef %10) #7
  store i64 %11, ptr %8, align 8
  %12 = load ptr, ptr %5, align 8
  %13 = call i64 @strlen(ptr noundef %12) #7
  store i64 %13, ptr %9, align 8
  %14 = load ptr, ptr %5, align 8
  %15 = load i8, ptr %14, align 1
  %16 = sext i8 %15 to i32
  %17 = call i32 @tolower(i32 noundef %16) #7
  %18 = trunc i32 %17 to i8
  %19 = getelementptr inbounds [3 x i8], ptr %7, i64 0, i64 0
  store i8 %18, ptr %19, align 1
  %20 = load ptr, ptr %5, align 8
  %21 = load i8, ptr %20, align 1
  %22 = sext i8 %21 to i32
  %23 = call i32 @toupper(i32 noundef %22) #7
  %24 = trunc i32 %23 to i8
  %25 = getelementptr inbounds [3 x i8], ptr %7, i64 0, i64 1
  store i8 %24, ptr %25, align 1
  %26 = getelementptr inbounds [3 x i8], ptr %7, i64 0, i64 2
  store i8 0, ptr %26, align 1
  %27 = load ptr, ptr %4, align 8
  %28 = getelementptr inbounds [3 x i8], ptr %7, i64 0, i64 0
  %29 = call i64 @strcspn(ptr noundef %27, ptr noundef %28) #7
  store i64 %29, ptr %6, align 8
  br label %30

30:                                               ; preds = %47, %2
  %31 = load i64, ptr %6, align 8
  %32 = load i64, ptr %8, align 8
  %33 = icmp ne i64 %31, %32
  br i1 %33, label %34, label %57

34:                                               ; preds = %30
  %35 = load ptr, ptr %4, align 8
  %36 = load i64, ptr %6, align 8
  %37 = getelementptr inbounds i8, ptr %35, i64 %36
  %38 = load ptr, ptr %5, align 8
  %39 = load i64, ptr %9, align 8
  %40 = call i32 @strncasecmp(ptr noundef %37, ptr noundef %38, i64 noundef %39) #7
  %41 = icmp eq i32 %40, 0
  br i1 %41, label %42, label %46

42:                                               ; preds = %34
  %43 = load ptr, ptr %4, align 8
  %44 = load i64, ptr %6, align 8
  %45 = getelementptr inbounds i8, ptr %43, i64 %44
  store ptr %45, ptr %3, align 8
  br label %58

46:                                               ; preds = %34
  br label %47

47:                                               ; preds = %46
  %48 = load ptr, ptr %4, align 8
  %49 = load i64, ptr %6, align 8
  %50 = getelementptr inbounds i8, ptr %48, i64 %49
  %51 = getelementptr inbounds i8, ptr %50, i64 1
  %52 = getelementptr inbounds [3 x i8], ptr %7, i64 0, i64 0
  %53 = call i64 @strcspn(ptr noundef %51, ptr noundef %52) #7
  %54 = add i64 %53, 1
  %55 = load i64, ptr %6, align 8
  %56 = add i64 %55, %54
  store i64 %56, ptr %6, align 8
  br label %30

57:                                               ; preds = %30
  store ptr null, ptr %3, align 8
  br label %58

58:                                               ; preds = %57, %42
  %59 = load ptr, ptr %3, align 8
  ret ptr %59
}