; Function Attrs: nofree nounwind memory(read) uwtable
define noundef ptr @__cli_strcasestr(ptr noundef readonly %0, ptr nocapture noundef readonly %1) local_unnamed_addr #11 {
  %3 = alloca [3 x i8], align 1
  %4 = tail call i64 @strlen(ptr noundef nonnull dereferenceable(1) %0) #26
  %5 = tail call i64 @strlen(ptr noundef nonnull dereferenceable(1) %1) #26
  %6 = load i8, ptr %1, align 1
  %7 = sext i8 %6 to i32
  %8 = tail call i32 @tolower(i32 noundef %7) #26
  %9 = trunc i32 %8 to i8
  store i8 %9, ptr %3, align 1
  %10 = tail call i32 @toupper(i32 noundef %7) #26
  %11 = trunc i32 %10 to i8
  %12 = getelementptr inbounds i8, ptr %3, i64 1
  store i8 %11, ptr %12, align 1
  %13 = getelementptr inbounds i8, ptr %3, i64 2
  store i8 0, ptr %13, align 1
  %14 = call i64 @strcspn(ptr noundef %0, ptr noundef nonnull %3) #26
  %.not17 = icmp eq i64 %14, %4
  br i1 %.not17, label %._crit_edge, label %.lr.ph

.lr.ph:                                           ; preds = %2, %18
  %.01618 = phi i64 [ %22, %18 ], [ %14, %2 ]
  %15 = getelementptr inbounds i8, ptr %0, i64 %.01618
  %16 = tail call i32 @strncasecmp(ptr noundef %15, ptr noundef nonnull %1, i64 noundef %5) #26
  %17 = icmp eq i32 %16, 0
  br i1 %17, label %._crit_edge, label %18

18:                                               ; preds = %.lr.ph
  %19 = getelementptr inbounds i8, ptr %15, i64 1
  %20 = call i64 @strcspn(ptr noundef nonnull %19, ptr noundef nonnull %3) #26
  %21 = add i64 %.01618, 1
  %22 = add i64 %21, %20
  %.not = icmp eq i64 %22, %4
  br i1 %.not, label %._crit_edge, label %.lr.ph

._crit_edge:                                      ; preds = %.lr.ph, %18, %2
  %.0 = phi ptr [ null, %2 ], [ null, %18 ], [ %15, %.lr.ph ]
  ret ptr %.0
}